target datalayout = "e-m:e-p270:32:32-p271:32:32-p272:64:64-i64:64-i128:128-f80:128-n8:16:32:64-S128"
target triple = "x86_64-pc-linux-gnu"

; Function Attrs: nounwind uwtable
define void @shiftIndices(ptr noundef %0, i32 noundef %1, i32 noundef %2) #0 {
  %4 = alloca ptr, align 8
  %5 = alloca i32, align 4
  %6 = alloca i32, align 4
  %7 = alloca i32, align 4
  store ptr %0, ptr %4, align 8, !tbaa !4
  store i32 %1, ptr %5, align 4, !tbaa !9
  store i32 %2, ptr %6, align 4, !tbaa !9
  call void @llvm.lifetime.start.p0(i64 4, ptr %7) #8
  store i32 0, ptr %7, align 4, !tbaa !9
  br label %8

8:                                                ; preds = %21, %3
  %9 = load i32, ptr %7, align 4, !tbaa !9
  %10 = load i32, ptr %5, align 4, !tbaa !9
  %11 = icmp slt i32 %9, %10
  br i1 %11, label %13, label %12

12:                                               ; preds = %8
  call void @llvm.lifetime.end.p0(i64 4, ptr %7) #8
  br label %24

13:                                               ; preds = %8
  %14 = load i32, ptr %6, align 4, !tbaa !9
  %15 = load ptr, ptr %4, align 8, !tbaa !4
  %16 = load i32, ptr %7, align 4, !tbaa !9
  %17 = sext i32 %16 to i64
  %18 = getelementptr inbounds i32, ptr %15, i64 %17
  %19 = load i32, ptr %18, align 4, !tbaa !9
  %20 = add nsw i32 %19, %14
  store i32 %20, ptr %18, align 4, !tbaa !9
  br label %21

21:                                               ; preds = %13
  %22 = load i32, ptr %7, align 4, !tbaa !9
  %23 = add nsw i32 %22, 1
  store i32 %23, ptr %7, align 4, !tbaa !9
  br label %8

24:                                               ; preds = %12
  ret void
}